target datalayout = "e-m:e-p270:32:32-p271:32:32-p272:64:64-i64:64-i128:128-f80:128-n8:16:32:64-S128"
target triple = "x86_64-pc-linux-gnu"

%struct.MinRegMan_t_ = type { i32, i32, i32, i32, i32, i32, i32, i32, i32, i32, i32, ptr, i32, i32, i32, i32, i32, i32, i32, i32, i32, ptr, ptr, ptr, ptr, ptr, ptr, ptr, ptr, ptr, i32 }
%struct.Vec_Int_t_ = type { i32, i32, ptr }
%struct.Abc_Obj_t_ = type { ptr, ptr, i32, i32, %struct.Vec_Int_t_, %struct.Vec_Int_t_, %union.anon.0, %union.anon.1 }
%union.anon.0 = type { ptr }
%union.anon.1 = type { ptr }
%struct.Flow_Data_t_ = type { i16, %union.anon, i32 }
%union.anon = type { ptr }

@pManMR = global ptr null, align 8

; Function Attrs: inlinehint nounwind uwtable
define internal ptr @Abc_ObjData(ptr noundef %0) #3 {
  %2 = alloca ptr, align 8
  store ptr %0, ptr %2, align 8, !tbaa !46
  %3 = load ptr, ptr %2, align 8, !tbaa !46
  %4 = getelementptr inbounds nuw %struct.Abc_Obj_t_, ptr %3, i32 0, i32 6
  %5 = load ptr, ptr %4, align 8, !tbaa !79
  ret ptr %5
}

; Function Attrs: inlinehint nounwind uwtable
define internal i32 @Abc_LatchIsInit1(ptr noundef %0) #3 {
  %2 = alloca ptr, align 8
  store ptr %0, ptr %2, align 8, !tbaa !46
  %3 = load ptr, ptr %2, align 8, !tbaa !46
  %4 = getelementptr inbounds nuw %struct.Abc_Obj_t_, ptr %3, i32 0, i32 6
  %5 = load ptr, ptr %4, align 8, !tbaa !79
  %6 = icmp eq ptr %5, inttoptr (i64 2 to ptr)
  %7 = zext i1 %6 to i32
  ret i32 %7
}

; Function Attrs: inlinehint nounwind uwtable
define internal i32 @Abc_LatchIsInit0(ptr noundef %0) #3 {
  %2 = alloca ptr, align 8
  store ptr %0, ptr %2, align 8, !tbaa !46
  %3 = load ptr, ptr %2, align 8, !tbaa !46
  %4 = getelementptr inbounds nuw %struct.Abc_Obj_t_, ptr %3, i32 0, i32 6
  %5 = load ptr, ptr %4, align 8, !tbaa !79
  %6 = icmp eq ptr %5, inttoptr (i64 1 to ptr)
  %7 = zext i1 %6 to i32
  ret i32 %7
}

; Function Attrs: inlinehint nounwind uwtable
define internal i32 @Abc_ObjId(ptr noundef %0) #3 {
  %2 = alloca ptr, align 8
  store ptr %0, ptr %2, align 8, !tbaa !46
  %3 = load ptr, ptr %2, align 8, !tbaa !46
  %4 = getelementptr inbounds nuw %struct.Abc_Obj_t_, ptr %3, i32 0, i32 2
  %5 = load i32, ptr %4, align 8, !tbaa !92
  ret i32 %5
}

; Function Attrs: nounwind uwtable
define void @Abc_FlowRetime_CopyInitState(ptr noundef %0, ptr noundef %1) #0 {
  %3 = alloca ptr, align 8
  %4 = alloca ptr, align 8
  %5 = alloca ptr, align 8
  %6 = alloca i32, align 4
  store ptr %0, ptr %3, align 8, !tbaa !46
  store ptr %1, ptr %4, align 8, !tbaa !46
  call void @llvm.lifetime.start.p0(i64 8, ptr %5) #9
  %7 = load ptr, ptr @pManMR, align 8, !tbaa !10
  %8 = getelementptr inbounds nuw %struct.MinRegMan_t_, ptr %7, i32 0, i32 1
  %9 = load i32, ptr %8, align 4, !tbaa !19
  %10 = icmp ne i32 %9, 0
  br i1 %10, label %12, label %11

11:                                               ; preds = %2
  store i32 1, ptr %6, align 4
  br label %74

12:                                               ; preds = %2
  %13 = load ptr, ptr @pManMR, align 8, !tbaa !10
  %14 = getelementptr inbounds nuw %struct.MinRegMan_t_, ptr %13, i32 0, i32 23
  %15 = load ptr, ptr %14, align 8, !tbaa !56
  %16 = load ptr, ptr %4, align 8, !tbaa !46
  %17 = call i32 @Abc_ObjId(ptr noundef %16)
  %18 = zext i32 %17 to i64
  %19 = getelementptr inbounds nuw %struct.Flow_Data_t_, ptr %15, i64 %18
  %20 = load i16, ptr %19, align 8
  %21 = zext i16 %20 to i32
  %22 = and i32 %21, -97
  %23 = trunc i32 %22 to i16
  store i16 %23, ptr %19, align 8
  %24 = load ptr, ptr %3, align 8, !tbaa !46
  %25 = call i32 @Abc_LatchIsInit0(ptr noundef %24)
  %26 = icmp ne i32 %25, 0
  br i1 %26, label %27, label %39

27:                                               ; preds = %12
  %28 = load ptr, ptr @pManMR, align 8, !tbaa !10
  %29 = getelementptr inbounds nuw %struct.MinRegMan_t_, ptr %28, i32 0, i32 23
  %30 = load ptr, ptr %29, align 8, !tbaa !56
  %31 = load ptr, ptr %4, align 8, !tbaa !46
  %32 = call i32 @Abc_ObjId(ptr noundef %31)
  %33 = zext i32 %32 to i64
  %34 = getelementptr inbounds nuw %struct.Flow_Data_t_, ptr %30, i64 %33
  %35 = load i16, ptr %34, align 8
  %36 = zext i16 %35 to i32
  %37 = or i32 %36, 32
  %38 = trunc i32 %37 to i16
  store i16 %38, ptr %34, align 8
  br label %56

39:                                               ; preds = %12
  %40 = load ptr, ptr %3, align 8, !tbaa !46
  %41 = call i32 @Abc_LatchIsInit1(ptr noundef %40)
  %42 = icmp ne i32 %41, 0
  br i1 %42, label %43, label %55

43:                                               ; preds = %39
  %44 = load ptr, ptr @pManMR, align 8, !tbaa !10
  %45 = getelementptr inbounds nuw %struct.MinRegMan_t_, ptr %44, i32 0, i32 23
  %46 = load ptr, ptr %45, align 8, !tbaa !56
  %47 = load ptr, ptr %4, align 8, !tbaa !46
  %48 = call i32 @Abc_ObjId(ptr noundef %47)
  %49 = zext i32 %48 to i64
  %50 = getelementptr inbounds nuw %struct.Flow_Data_t_, ptr %46, i64 %49
  %51 = load i16, ptr %50, align 8
  %52 = zext i16 %51 to i32
  %53 = or i32 %52, 64
  %54 = trunc i32 %53 to i16
  store i16 %54, ptr %50, align 8
  br label %55

55:                                               ; preds = %43, %39
  br label %56

56:                                               ; preds = %55, %27
  %57 = load ptr, ptr @pManMR, align 8, !tbaa !10
  %58 = getelementptr inbounds nuw %struct.MinRegMan_t_, ptr %57, i32 0, i32 13
  %59 = load i32, ptr %58, align 4, !tbaa !103
  %60 = icmp ne i32 %59, 0
  br i1 %60, label %73, label %61

61:                                               ; preds = %56
  %62 = load ptr, ptr %3, align 8, !tbaa !46
  %63 = call ptr @Abc_ObjData(ptr noundef %62)
  store ptr %63, ptr %5, align 8, !tbaa !46
  %64 = load ptr, ptr %5, align 8, !tbaa !46
  %65 = load ptr, ptr @pManMR, align 8, !tbaa !10
  %66 = getelementptr inbounds nuw %struct.MinRegMan_t_, ptr %65, i32 0, i32 23
  %67 = load ptr, ptr %66, align 8, !tbaa !56
  %68 = load ptr, ptr %4, align 8, !tbaa !46
  %69 = call i32 @Abc_ObjId(ptr noundef %68)
  %70 = zext i32 %69 to i64
  %71 = getelementptr inbounds nuw %struct.Flow_Data_t_, ptr %67, i64 %70
  %72 = getelementptr inbounds nuw %struct.Flow_Data_t_, ptr %71, i32 0, i32 1
  store ptr %64, ptr %72, align 8, !tbaa !79
  br label %73

73:                                               ; preds = %61, %56
  store i32 0, ptr %6, align 4
  br label %74

74:                                               ; preds = %73, %11
  call void @llvm.lifetime.end.p0(i64 8, ptr %5) #9
  %75 = load i32, ptr %6, align 4
  switch i32 %75, label %77 [
    i32 0, label %76
    i32 1, label %76
  ]

76:                                               ; preds = %74, %74
  ret void

77:                                               ; preds = %74
  unreachable
}