; Function Attrs: mustprogress nofree norecurse nosync nounwind willreturn memory(readwrite, inaccessiblemem: none) uwtable
define void @Abc_FlowRetime_CopyInitState(ptr noundef readonly captures(none) %0, ptr noundef readonly captures(none) %1) local_unnamed_addr #8 {
  %3 = load ptr, ptr @pManMR, align 8, !tbaa !3
  %4 = getelementptr inbounds nuw i8, ptr %3, i64 4
  %5 = load i32, ptr %4, align 4, !tbaa !23
  %.not = icmp eq i32 %5, 0
  br i1 %.not, label %32, label %6

6:                                                ; preds = %2
  %7 = getelementptr inbounds nuw i8, ptr %3, i64 112
  %8 = load ptr, ptr %7, align 8, !tbaa !71
  %9 = getelementptr i8, ptr %1, i64 16
  %.val15 = load i32, ptr %9, align 8, !tbaa !80
  %10 = zext i32 %.val15 to i64
  %11 = getelementptr inbounds nuw %struct.Flow_Data_t_, ptr %8, i64 %10
  %12 = load i16, ptr %11, align 8
  %13 = and i16 %12, -97
  store i16 %13, ptr %11, align 8
  %14 = getelementptr i8, ptr %0, i64 56
  %.val = load ptr, ptr %14, align 8, !tbaa !59
  %magicptr = ptrtoint ptr %.val to i64
  switch i64 %magicptr, label %23 [
    i64 1, label %.sink.split
    i64 2, label %15
  ]

15:                                               ; preds = %6
  br label %.sink.split

.sink.split:                                      ; preds = %6, %15
  %.sink21 = phi i16 [ 64, %15 ], [ 32, %6 ]
  %16 = load ptr, ptr @pManMR, align 8, !tbaa !3
  %17 = getelementptr inbounds nuw i8, ptr %16, i64 112
  %18 = load ptr, ptr %17, align 8, !tbaa !71
  %.val13 = load i32, ptr %9, align 8, !tbaa !80
  %19 = zext i32 %.val13 to i64
  %20 = getelementptr inbounds nuw %struct.Flow_Data_t_, ptr %18, i64 %19
  %21 = load i16, ptr %20, align 8
  %22 = or i16 %21, %.sink21
  store i16 %22, ptr %20, align 8
  br label %23

23:                                               ; preds = %.sink.split, %6
  %24 = load ptr, ptr @pManMR, align 8, !tbaa !3
  %25 = getelementptr inbounds nuw i8, ptr %24, i64 60
  %26 = load i32, ptr %25, align 4, !tbaa !72
  %.not10 = icmp eq i32 %26, 0
  br i1 %.not10, label %27, label %32

27:                                               ; preds = %23
  %.val16 = load ptr, ptr %14, align 8, !tbaa !59
  %28 = getelementptr inbounds nuw i8, ptr %24, i64 112
  %29 = load ptr, ptr %28, align 8, !tbaa !71
  %.val12 = load i32, ptr %9, align 8, !tbaa !80
  %30 = zext i32 %.val12 to i64
  %31 = getelementptr inbounds nuw %struct.Flow_Data_t_, ptr %29, i64 %30, i32 1
  store ptr %.val16, ptr %31, align 8, !tbaa !59
  br label %32

32:                                               ; preds = %23, %27, %2
  ret void
}